target datalayout = "e-m:e-p270:32:32-p271:32:32-p272:64:64-i64:64-i128:128-f80:128-n8:16:32:64-S128"
target triple = "x86_64-pc-linux-gnu"

%struct.Amap_Lib_t_ = type { ptr, ptr, ptr, ptr, ptr, ptr, ptr, ptr, ptr, i32, i32, i32, ptr, i32, i32, ptr, ptr, ptr, ptr, ptr, ptr, i32 }
%struct.Vec_Int_t_ = type { i32, i32, ptr }

; Function Attrs: inlinehint nounwind uwtable
define internal i32 @Vec_IntEntry(ptr noundef %0, i32 noundef %1) #1 {
  %3 = alloca ptr, align 8
  %4 = alloca i32, align 4
  store ptr %0, ptr %3, align 8, !tbaa !20
  store i32 %1, ptr %4, align 4, !tbaa !8
  %5 = load ptr, ptr %3, align 8, !tbaa !20
  %6 = getelementptr inbounds nuw %struct.Vec_Int_t_, ptr %5, i32 0, i32 2
  %7 = load ptr, ptr %6, align 8, !tbaa !24
  %8 = load i32, ptr %4, align 4, !tbaa !8
  %9 = sext i32 %8 to i64
  %10 = getelementptr inbounds i32, ptr %7, i64 %9
  %11 = load i32, ptr %10, align 4, !tbaa !8
  ret i32 %11
}

; Function Attrs: inlinehint nounwind uwtable
define internal i32 @Vec_IntSize(ptr noundef %0) #1 {
  %2 = alloca ptr, align 8
  store ptr %0, ptr %2, align 8, !tbaa !20
  %3 = load ptr, ptr %2, align 8, !tbaa !20
  %4 = getelementptr inbounds nuw %struct.Vec_Int_t_, ptr %3, i32 0, i32 1
  %5 = load i32, ptr %4, align 4, !tbaa !21
  ret i32 %5
}

; Function Attrs: nounwind uwtable
define i32 @Amap_LibFindMux(ptr noundef %0, i32 noundef %1, i32 noundef %2, i32 noundef %3) #0 {
  %5 = alloca i32, align 4
  %6 = alloca ptr, align 8
  %7 = alloca i32, align 4
  %8 = alloca i32, align 4
  %9 = alloca i32, align 4
  %10 = alloca i32, align 4
  %11 = alloca i32, align 4
  store ptr %0, ptr %6, align 8, !tbaa !3
  store i32 %1, ptr %7, align 4, !tbaa !8
  store i32 %2, ptr %8, align 4, !tbaa !8
  store i32 %3, ptr %9, align 4, !tbaa !8
  call void @llvm.lifetime.start.p0(i64 4, ptr %10) #7
  store i32 0, ptr %10, align 4, !tbaa !8
  br label %12

12:                                               ; preds = %53, %4
  %13 = load i32, ptr %10, align 4, !tbaa !8
  %14 = load ptr, ptr %6, align 8, !tbaa !3
  %15 = getelementptr inbounds nuw %struct.Amap_Lib_t_, ptr %14, i32 0, i32 17
  %16 = load ptr, ptr %15, align 8, !tbaa !31
  %17 = call i32 @Vec_IntSize(ptr noundef %16)
  %18 = icmp slt i32 %13, %17
  br i1 %18, label %19, label %56

19:                                               ; preds = %12
  %20 = load ptr, ptr %6, align 8, !tbaa !3
  %21 = getelementptr inbounds nuw %struct.Amap_Lib_t_, ptr %20, i32 0, i32 17
  %22 = load ptr, ptr %21, align 8, !tbaa !31
  %23 = load i32, ptr %10, align 4, !tbaa !8
  %24 = call i32 @Vec_IntEntry(ptr noundef %22, i32 noundef %23)
  %25 = load i32, ptr %7, align 4, !tbaa !8
  %26 = icmp eq i32 %24, %25
  br i1 %26, label %27, label %52

27:                                               ; preds = %19
  %28 = load ptr, ptr %6, align 8, !tbaa !3
  %29 = getelementptr inbounds nuw %struct.Amap_Lib_t_, ptr %28, i32 0, i32 17
  %30 = load ptr, ptr %29, align 8, !tbaa !31
  %31 = load i32, ptr %10, align 4, !tbaa !8
  %32 = add nsw i32 %31, 1
  %33 = call i32 @Vec_IntEntry(ptr noundef %30, i32 noundef %32)
  %34 = load i32, ptr %8, align 4, !tbaa !8
  %35 = icmp eq i32 %33, %34
  br i1 %35, label %36, label %52

36:                                               ; preds = %27
  %37 = load ptr, ptr %6, align 8, !tbaa !3
  %38 = getelementptr inbounds nuw %struct.Amap_Lib_t_, ptr %37, i32 0, i32 17
  %39 = load ptr, ptr %38, align 8, !tbaa !31
  %40 = load i32, ptr %10, align 4, !tbaa !8
  %41 = add nsw i32 %40, 2
  %42 = call i32 @Vec_IntEntry(ptr noundef %39, i32 noundef %41)
  %43 = load i32, ptr %9, align 4, !tbaa !8
  %44 = icmp eq i32 %42, %43
  br i1 %44, label %45, label %52

45:                                               ; preds = %36
  %46 = load ptr, ptr %6, align 8, !tbaa !3
  %47 = getelementptr inbounds nuw %struct.Amap_Lib_t_, ptr %46, i32 0, i32 17
  %48 = load ptr, ptr %47, align 8, !tbaa !31
  %49 = load i32, ptr %10, align 4, !tbaa !8
  %50 = add nsw i32 %49, 3
  %51 = call i32 @Vec_IntEntry(ptr noundef %48, i32 noundef %50)
  store i32 %51, ptr %5, align 4
  store i32 1, ptr %11, align 4
  br label %57

52:                                               ; preds = %36, %27, %19
  br label %53

53:                                               ; preds = %52
  %54 = load i32, ptr %10, align 4, !tbaa !8
  %55 = add nsw i32 %54, 4
  store i32 %55, ptr %10, align 4, !tbaa !8
  br label %12, !llvm.loop !32

56:                                               ; preds = %12
  store i32 -1, ptr %5, align 4
  store i32 1, ptr %11, align 4
  br label %57

57:                                               ; preds = %56, %45
  call void @llvm.lifetime.end.p0(i64 4, ptr %10) #7
  %58 = load i32, ptr %5, align 4
  ret i32 %58
}