; Function Attrs: nofree norecurse nosync nounwind memory(read, inaccessiblemem: none) uwtable
define i32 @Amap_LibFindMux(ptr noundef readonly captures(none) %0, i32 noundef %1, i32 noundef %2, i32 noundef %3) local_unnamed_addr #0 {
  %5 = getelementptr inbounds nuw i8, ptr %0, i64 120
  %6 = load ptr, ptr %5, align 8, !tbaa !27
  %7 = getelementptr i8, ptr %6, i64 4
  %.val = load i32, ptr %7, align 4, !tbaa !19
  %8 = icmp sgt i32 %.val, 0
  br i1 %8, label %.lr.ph, label %.loopexit

.lr.ph:                                           ; preds = %4
  %9 = getelementptr i8, ptr %6, i64 8
  %.val15 = load ptr, ptr %9, align 8, !tbaa !22
  br label %10

10:                                               ; preds = %.lr.ph, %29
  %indvars.iv = phi i64 [ 0, %.lr.ph ], [ %indvars.iv.next, %29 ]
  %11 = getelementptr inbounds nuw i32, ptr %.val15, i64 %indvars.iv
  %12 = load i32, ptr %11, align 4, !tbaa !25
  %13 = icmp eq i32 %12, %1
  br i1 %13, label %14, label %29

14:                                               ; preds = %10
  %15 = or disjoint i64 %indvars.iv, 1
  %16 = getelementptr inbounds nuw i32, ptr %.val15, i64 %15
  %17 = load i32, ptr %16, align 4, !tbaa !25
  %18 = icmp eq i32 %17, %2
  br i1 %18, label %19, label %29

19:                                               ; preds = %14
  %20 = or disjoint i64 %indvars.iv, 2
  %21 = getelementptr inbounds nuw i32, ptr %.val15, i64 %20
  %22 = load i32, ptr %21, align 4, !tbaa !25
  %23 = icmp eq i32 %22, %3
  br i1 %23, label %24, label %29

24:                                               ; preds = %19
  %25 = and i64 %indvars.iv, 4294967292
  %26 = or disjoint i64 %25, 3
  %27 = getelementptr inbounds nuw i32, ptr %.val15, i64 %26
  %28 = load i32, ptr %27, align 4, !tbaa !25
  br label %.loopexit

29:                                               ; preds = %10, %14, %19
  %indvars.iv.next = add nuw nsw i64 %indvars.iv, 4
  %30 = trunc nuw i64 %indvars.iv.next to i32
  %31 = icmp sgt i32 %.val, %30
  br i1 %31, label %10, label %.loopexit, !llvm.loop !28

.loopexit:                                        ; preds = %29, %4, %24
  %.014 = phi i32 [ %28, %24 ], [ -1, %4 ], [ -1, %29 ]
  ret i32 %.014
}